; ModuleID = 'source-C-CXX/36/1676.c'
source_filename = "source-C-CXX/36/1676.c"
target datalayout = "e-m:e-p270:32:32-p271:32:32-p272:64:64-i64:64-f80:128-n8:16:32:64-S128"
target triple = "x86_64-pc-linux-gnu"

@.str = private unnamed_addr constant [4 x i8] c"%c\0A\00", align 1
@.str.2 = private unnamed_addr constant [4 x i8] c"%d\0A\00", align 1
@str = private unnamed_addr constant [3 x i8] c"no\00", align 1

; Function Attrs: nofree nounwind sspstrong uwtable
define dso_local void @find(i8* nocapture readonly %0) local_unnamed_addr #0 {
  %2 = alloca [26 x i32], align 16
  %3 = bitcast [26 x i32]* %2 to i8*
  call void @llvm.lifetime.start.p0i8(i64 104, i8* nonnull %3) #7
  call void @llvm.memset.p0i8.i64(i8* noundef nonnull align 16 dereferenceable(104) %3, i8 0, i64 104, i1 false)
  %4 = load i8, i8* %0, align 1, !tbaa !5
  %5 = icmp eq i8 %4, 0
  br i1 %5, label %35, label %7

6:                                                ; preds = %7
  br i1 %5, label %35, label %23

7:                                                ; preds = %1, %7
  %8 = phi i64 [ %15, %7 ], [ 0, %1 ]
  %9 = phi i8 [ %17, %7 ], [ %4, %1 ]
  %10 = sext i8 %9 to i64
  %11 = add nsw i64 %10, -97
  %12 = getelementptr inbounds [26 x i32], [26 x i32]* %2, i64 0, i64 %11
  %13 = load i32, i32* %12, align 4, !tbaa !8
  %14 = add nsw i32 %13, 1
  store i32 %14, i32* %12, align 4, !tbaa !8
  %15 = add nuw nsw i64 %8, 1
  %16 = getelementptr inbounds i8, i8* %0, i64 %15
  %17 = load i8, i8* %16, align 1, !tbaa !5
  %18 = icmp eq i8 %17, 0
  br i1 %18, label %6, label %7, !llvm.loop !10

19:                                               ; preds = %23
  %20 = getelementptr inbounds i8, i8* %0, i64 %31
  %21 = load i8, i8* %20, align 1, !tbaa !5
  %22 = icmp eq i8 %21, 0
  br i1 %22, label %35, label %23, !llvm.loop !12

23:                                               ; preds = %6, %19
  %24 = phi i64 [ %31, %19 ], [ 0, %6 ]
  %25 = phi i8 [ %21, %19 ], [ %4, %6 ]
  %26 = sext i8 %25 to i64
  %27 = add nsw i64 %26, -97
  %28 = getelementptr inbounds [26 x i32], [26 x i32]* %2, i64 0, i64 %27
  %29 = load i32, i32* %28, align 4, !tbaa !8
  %30 = icmp eq i32 %29, 1
  %31 = add nuw i64 %24, 1
  br i1 %30, label %32, label %19

32:                                               ; preds = %23
  %33 = sext i8 %25 to i32
  %34 = tail call i32 (i8*, ...) @printf(i8* nonnull dereferenceable(1) getelementptr inbounds ([4 x i8], [4 x i8]* @.str, i64 0, i64 0), i32 %33)
  br label %37

35:                                               ; preds = %19, %1, %6
  %36 = tail call i32 @puts(i8* nonnull dereferenceable(1) getelementptr inbounds ([3 x i8], [3 x i8]* @str, i64 0, i64 0))
  br label %37

37:                                               ; preds = %35, %32
  call void @llvm.lifetime.end.p0i8(i64 104, i8* nonnull %3) #7
  ret void
}

; Function Attrs: argmemonly mustprogress nofree nosync nounwind willreturn
declare void @llvm.lifetime.start.p0i8(i64 immarg, i8* nocapture) #1

; Function Attrs: argmemonly mustprogress nofree nounwind willreturn writeonly
declare void @llvm.memset.p0i8.i64(i8* nocapture writeonly, i8, i64, i1 immarg) #2

; Function Attrs: nofree nounwind
declare noundef i32 @printf(i8* nocapture noundef readonly, ...) local_unnamed_addr #3

; Function Attrs: argmemonly mustprogress nofree nosync nounwind willreturn
declare void @llvm.lifetime.end.p0i8(i64 immarg, i8* nocapture) #1

; Function Attrs: nounwind sspstrong uwtable
define dso_local i32 @main() local_unnamed_addr #4 {
  %1 = alloca [26 x i32], align 16
  %2 = alloca i32, align 4
  %3 = alloca [100000 x i8], align 16
  %4 = bitcast i32* %2 to i8*
  call void @llvm.lifetime.start.p0i8(i64 4, i8* nonnull %4) #7
  %5 = getelementptr inbounds [100000 x i8], [100000 x i8]* %3, i64 0, i64 0
  call void @llvm.lifetime.start.p0i8(i64 100000, i8* nonnull %5) #7
  %6 = call i32 (i8*, ...) @__isoc99_scanf(i8* getelementptr inbounds ([4 x i8], [4 x i8]* @.str.2, i64 0, i64 0), i32* nonnull %2)
  %7 = bitcast [26 x i32]* %1 to i8*
  %8 = load i32, i32* %2, align 4, !tbaa !8
  %9 = icmp sgt i32 %8, 0
  br i1 %9, label %10, label %49

10:                                               ; preds = %0, %45
  %11 = phi i32 [ %46, %45 ], [ 0, %0 ]
  %12 = call i32 (i8*, ...) bitcast (i32 (...)* @gets to i32 (i8*, ...)*)(i8* nonnull %5) #7
  call void @llvm.lifetime.start.p0i8(i64 104, i8* nonnull %7) #7
  call void @llvm.memset.p0i8.i64(i8* noundef nonnull align 16 dereferenceable(104) %7, i8 0, i64 104, i1 false) #7
  %13 = load i8, i8* %5, align 16, !tbaa !5
  %14 = icmp eq i8 %13, 0
  br i1 %14, label %43, label %15

15:                                               ; preds = %10, %15
  %16 = phi i64 [ %23, %15 ], [ 0, %10 ]
  %17 = phi i8 [ %25, %15 ], [ %13, %10 ]
  %18 = sext i8 %17 to i64
  %19 = add nsw i64 %18, -97
  %20 = getelementptr inbounds [26 x i32], [26 x i32]* %1, i64 0, i64 %19
  %21 = load i32, i32* %20, align 4, !tbaa !8
  %22 = add nsw i32 %21, 1
  store i32 %22, i32* %20, align 4, !tbaa !8
  %23 = add nuw nsw i64 %16, 1
  %24 = getelementptr inbounds [100000 x i8], [100000 x i8]* %3, i64 0, i64 %23
  %25 = load i8, i8* %24, align 1, !tbaa !5
  %26 = icmp eq i8 %25, 0
  br i1 %26, label %31, label %15, !llvm.loop !10

27:                                               ; preds = %31
  %28 = getelementptr inbounds [100000 x i8], [100000 x i8]* %3, i64 0, i64 %39
  %29 = load i8, i8* %28, align 1, !tbaa !5
  %30 = icmp eq i8 %29, 0
  br i1 %30, label %43, label %31, !llvm.loop !12

31:                                               ; preds = %15, %27
  %32 = phi i64 [ %39, %27 ], [ 0, %15 ]
  %33 = phi i8 [ %29, %27 ], [ %13, %15 ]
  %34 = sext i8 %33 to i64
  %35 = add nsw i64 %34, -97
  %36 = getelementptr inbounds [26 x i32], [26 x i32]* %1, i64 0, i64 %35
  %37 = load i32, i32* %36, align 4, !tbaa !8
  %38 = icmp eq i32 %37, 1
  %39 = add nuw i64 %32, 1
  br i1 %38, label %40, label %27

40:                                               ; preds = %31
  %41 = sext i8 %33 to i32
  %42 = call i32 (i8*, ...) @printf(i8* nonnull dereferenceable(1) getelementptr inbounds ([4 x i8], [4 x i8]* @.str, i64 0, i64 0), i32 %41) #7
  br label %45

43:                                               ; preds = %27, %10
  %44 = call i32 @puts(i8* nonnull dereferenceable(1) getelementptr inbounds ([3 x i8], [3 x i8]* @str, i64 0, i64 0)) #7
  br label %45

45:                                               ; preds = %40, %43
  call void @llvm.lifetime.end.p0i8(i64 104, i8* nonnull %7) #7
  %46 = add nuw nsw i32 %11, 1
  %47 = load i32, i32* %2, align 4, !tbaa !8
  %48 = icmp slt i32 %46, %47
  br i1 %48, label %10, label %49, !llvm.loop !13

49:                                               ; preds = %45, %0
  call void @llvm.lifetime.end.p0i8(i64 100000, i8* nonnull %5) #7
  call void @llvm.lifetime.end.p0i8(i64 4, i8* nonnull %4) #7
  ret i32 0
}

; Function Attrs: nofree nounwind
declare noundef i32 @__isoc99_scanf(i8* nocapture noundef readonly, ...) local_unnamed_addr #3

declare i32 @gets(...) local_unnamed_addr #5

; Function Attrs: nofree nounwind
declare noundef i32 @puts(i8* nocapture noundef readonly) local_unnamed_addr #6


!llvm.module.flags = !{!0, !1, !2, !3}
!llvm.ident = !{!4}

!0 = !{i32 1, !"wchar_size", i32 4}
!1 = !{i32 7, !"PIC Level", i32 2}
!2 = !{i32 7, !"PIE Level", i32 2}
!3 = !{i32 7, !"uwtable", i32 1}
!4 = !{!"clang version 13.0.0"}
!5 = !{!6, !6, i64 0}
!6 = !{!"omnipotent char", !7, i64 0}
!7 = !{!"Simple C/C++ TBAA"}
!8 = !{!9, !9, i64 0}
!9 = !{!"int", !6, i64 0}
!10 = distinct !{!10, !11}
!11 = !{!"llvm.loop.mustprogress"}
!12 = distinct !{!12, !11}
!13 = distinct !{!13, !11}
